(dp0
S'boxes'
p1
(lp2
(L345L
L349L
L292L
L295L
tp3
a(L518L
L522L
L318L
L321L
tp4
a(L451L
L459L
L318L
L327L
tp5
a(L17L
L21L
L105L
L106L
tp6
a(L4L
L6L
L133L
L137L
tp7
a(L298L
L306L
L150L
L161L
tp8
a(L27L
L31L
L353L
L366L
tp9
a(L209L
L213L
L473L
L477L
tp10
a(L165L
L184L
L26L
L33L
tp11
a(L447L
L451L
L248L
L251L
tp12
a(L524L
L528L
L240L
L248L
tp13
a(L113L
L127L
L366L
L374L
tp14
a(I0
L4L
L295L
L296L
tp15
a(L518L
L524L
L217L
L221L
tp16
a(L437L
L441L
L212L
L217L
tp17
a(L456L
L479L
L374L
L381L
tp18
a(L351L
L354L
L355L
L363L
tp19
a(I0
L4L
L430L
L433L
tp20
a(I0
L6L
L343L
L359L
tp21
a(L117L
L123L
L454L
L462L
tp22
a(L27L
L31L
L105L
L106L
tp23
a(L6L
L11L
L347L
L353L
tp24
a(L332L
L336L
L296L
L303L
tp25
a(L426L
L428L
L177L
L182L
tp26
a(L397L
L399L
L311L
L315L
tp27
a(L341L
L345L
L311L
L315L
tp28
a(L11L
L15L
L327L
L332L
tp29
a(L4L
L6L
L240L
L245L
tp30
a(L279L
L284L
L465L
L470L
tp31
a(L504L
L509L
L280L
L287L
tp32
a(L117L
L136L
L350L
L366L
tp33
a(L242L
L247L
L395L
L398L
tp34
a(L31L
L60L
L438L
L445L
tp35
a(L21L
L31L
L177L
L192L
tp36
a(L261L
L269L
L350L
L366L
tp37
a(L193L
L199L
L22L
L26L
tp38
a(L492L
L494L
L311L
L315L
tp39
a(I0
L21L
L493L
L507L
tp40
a(L574L
L584L
L271L
L280L
tp41
a(I0
L11L
L224L
L240L
tp42
a(L21L
L27L
L395L
L398L
tp43
a(L4L
L11L
L486L
L493L
tp44
a(L518L
L524L
L125L
L128L
tp45
a(L494L
L498L
L327L
L335L
tp46
a(L509L
L514L
L343L
L350L
tp47
a(L345L
L351L
L287L
L292L
tp48
a(L459L
L463L
L306L
L308L
tp49
a(L251L
L255L
L8L
L9L
tp50
a(L11L
L17L
L423L
L430L
tp51
a(L111L
L123L
L38L
L42L
tp52
a(L456L
L459L
L182L
L185L
tp53
a(L17L
L21L
L332L
L335L
tp54
a(L522L
L536L
L224L
L240L
tp55
a(L403L
L407L
L12L
L17L
tp56
a(L389L
L392L
L22L
L26L
tp57
a(L31L
L51L
L113L
L128L
tp58
a(L536L
L545L
L311L
L315L
tp59
a(L317L
L326L
L323L
L366L
tp60
a(L403L
L422L
L398L
L414L
tp61
a(L509L
L518L
L192L
L214L
tp62
a(L326L
L345L
L254L
L287L
tp63
a(L255L
L257L
L233L
L237L
tp64
a(L104L
L108L
L41L
L42L
tp65
a(L528L
L531L
L403L
L407L
tp66
a(L78L
L82L
L422L
L423L
tp67
a(L269L
L288L
L350L
L381L
tp68
a(L306L
L317L
L398L
L407L
tp69
a(L123L
L132L
L496L
L501L
tp70
a(L84L
L94L
L427L
L430L
tp71
a(L288L
L294L
L158L
L161L
tp72
a(L409L
L422L
L140L
L154L
tp73
a(L17L
L21L
L233L
L237L
tp74
a(L151L
L154L
L505L
L507L
tp75
a(L231L
L237L
L327L
L335L
tp76
a(L369L
L389L
L17L
L26L
tp77
a(L504L
L509L
L271L
L274L
tp78
a(L223L
L228L
L321L
L323L
tp79
a(L518L
L522L
L121L
L125L
tp80
a(L70L
L78L
L430L
L445L
tp81
a(L451L
L459L
L137L
L145L
tp82
a(L123L
L127L
L486L
L489L
tp83
a(L123L
L127L
L36L
L42L
tp84
a(L498L
L536L
L128L
L192L
tp85
a(L317L
L326L
L398L
L414L
tp86
a(L536L
L552L
L303L
L311L
tp87
a(L294L
L298L
L154L
L161L
tp88
a(L369L
L375L
L350L
L359L
tp89
a(L149L
L151L
L470L
L474L
tp90
a(L418L
L426L
L173L
L177L
tp91
a(L127L
L136L
L482L
L486L
tp92
a(L266L
L275L
L398L
L403L
tp93
a(L21L
L25L
L414L
L417L
tp94
a(L504L
L509L
L209L
L212L
tp95
a(L383L
L403L
L161L
L192L
tp96
a(L226L
L228L
L359L
L363L
tp97
a(L51L
L56L
L501L
L507L
tp98
a(L231L
L235L
L473L
L474L
tp99
a(L310L
L317L
L430L
L438L
tp100
a(L193L
L204L
L26L
L42L
tp101
a(L94L
L98L
L441L
L445L
tp102
a(L21L
L25L
L335L
L338L
tp103
a(L536L
L542L
L133L
L137L
tp104
a(L78L
L98L
L445L
L477L
tp105
a(L303L
L312L
L347L
L350L
tp106
a(L288L
L298L
L454L
L462L
tp107
a(L25L
L31L
L423L
L430L
tp108
a(L174L
L180L
L505L
L507L
tp109
a(L456L
L465L
L133L
L137L
tp110
a(L518L
L536L
L254L
L318L
tp111
a(L275L
L288L
L3L
L17L
tp112
a(L94L
L98L
L42L
L50L
tp113
a(L269L
L273L
L284L
L287L
tp114
a(L36L
L40L
L430L
L438L
tp115
a(L310L
L312L
L359L
L363L
tp116
a(L413L
L418L
L390L
L398L
tp117
a(L403L
L459L
L287L
L318L
tp118
a(L494L
L498L
L306L
L311L
tp119
a(L6L
L17L
L374L
L381L
tp120
a(L56L
L66L
L87L
L90L
tp121
a(L98L
L127L
L65L
L82L
tp122
a(L21L
L25L
L453L
L454L
tp123
a(L184L
L193L
L486L
L507L
tp124
a(L255L
L257L
L284L
L287L
tp125
a(L371L
L375L
L359L
L371L
tp126
a(L140L
L142L
L33L
L38L
tp127
a(I0
L6L
L254L
L280L
tp128
a(L288L
L294L
L177L
L182L
tp129
a(L151L
L154L
L474L
L477L
tp130
a(L269L
L273L
L338L
L340L
tp131
a(L56L
L60L
L422L
L433L
tp132
a(L102L
L104L
L259L
L263L
tp133
a(L235L
L237L
L482L
L486L
tp134
a(L317L
L365L
L145L
L161L
tp135
a(L399L
L403L
L303L
L311L
tp136
a(L326L
L341L
L311L
L335L
tp137
a(L132L
L136L
L252L
L254L
tp138
a(L193L
L197L
L308L
L318L
tp139
a(L341L
L345L
L330L
L335L
tp140
a(L257L
L261L
L326L
L327L
tp141
a(L261L
L269L
L9L
L17L
tp142
a(L31L
L36L
L110L
L113L
tp143
a(L288L
L306L
L462L
L477L
tp144
a(L104L
L108L
L257L
L263L
tp145
a(L31L
L36L
L366L
L374L
tp146
a(L40L
L44L
L93L
L94L
tp147
a(L403L
L409L
L145L
L150L
tp148
a(L518L
L524L
L371L
L398L
tp149
a(L251L
L326L
L254L
L271L
tp150
a(L136L
L142L
L65L
L74L
tp151
a(L98L
L102L
L441L
L442L
tp152
a(L170L
L174L
L248L
L254L
tp153
a(L485L
L489L
L192L
L195L
tp154
a(L251L
L257L
L237L
L240L
tp155
a(L269L
L275L
L340L
L343L
tp156
a(L371L
L380L
L335L
L343L
tp157
a(L151L
L154L
L30L
L33L
tp158
a(L470L
L479L
L131L
L145L
tp159
a(L275L
L279L
L166L
L169L
tp160
a(L127L
L130L
L486L
L490L
tp161
a(L556L
L566L
L161L
L177L
tp162
a(L432L
L437L
L209L
L217L
tp163
a(L498L
L502L
L323L
L326L
tp164
a(L84L
L89L
L58L
L65L
tp165
a(L21L
L27L
L374L
L378L
tp166
a(L146L
L154L
L252L
L254L
tp167
a(L247L
L251L
L393L
L398L
tp168
a(L21L
L27L
L118L
L121L
tp169
a(L282L
L284L
L170L
L174L
tp170
a(L447L
L456L
L374L
L378L
tp171
a(L315L
L317L
L407L
L411L
tp172
a(L251L
L255L
L42L
L45L
tp173
a(L365L
L371L
L150L
L154L
tp174
a(L528L
L536L
L423L
L430L
tp175
a(L428L
L441L
L161L
L166L
tp176
a(L108L
L117L
L335L
L366L
tp177
a(L485L
L489L
L177L
L185L
tp178
a(L409L
L413L
L164L
L170L
tp179
a(L257L
L261L
L233L
L240L
tp180
a(L66L
L70L
L417L
L423L
tp181
a(L536L
L556L
L145L
L192L
tp182
a(L507L
L509L
L276L
L280L
tp183
a(L27L
L34L
L150L
L154L
tp184
a(L365L
L369L
L377L
L378L
tp185
a(L51L
L70L
L90L
L97L
tp186
a(L46L
L51L
L433L
L438L
tp187
a(L174L
L184L
L271L
L303L
tp188
a(L27L
L31L
L384L
L386L
tp189
a(L383L
L403L
L381L
L414L
tp190
a(L441L
L447L
L374L
L381L
tp191
a(L11L
L17L
L233L
L240L
tp192
a(L475L
L479L
L359L
L374L
tp193
a(L288L
L294L
L271L
L276L
tp194
a(L117L
L121L
L448L
L450L
tp195
a(L317L
L326L
L271L
L292L
tp196
a(I0
L11L
L248L
L254L
tp197
a(L237L
L247L
L12L
L17L
tp198
a(L556L
L560L
L504L
L505L
tp199
a(L437L
L441L
L166L
L170L
tp200
a(L365L
L375L
L154L
L161L
tp201
a(L180L
L184L
L485L
L486L
tp202
a(L117L
L136L
L501L
L507L
tp203
a(L392L
L394L
L343L
L347L
tp204
a(L21L
L25L
L398L
L401L
tp205
a(L422L
L432L
L182L
L192L
tp206
a(L257L
L266L
L398L
L401L
tp207
a(L94L
L98L
L326L
L332L
tp208
a(L15L
L17L
L470L
L474L
tp209
a(L279L
L284L
L164L
L166L
tp210
a(L437L
L441L
L389L
L390L
tp211
a(L483L
L485L
L347L
L350L
tp212
a(L36L
L40L
L102L
L113L
tp213
a(L174L
L180L
L252L
L271L
tp214
a(L306L
L317L
L154L
L161L
tp215
a(L117L
L121L
L82L
L85L
tp216
a(L574L
L578L
L174L
L182L
tp217
a(L40L
L46L
L427L
L438L
tp218
a(L70L
L78L
L79L
L106L
tp219
a(L51L
L60L
L493L
L501L
tp220
a(L6L
L11L
L482L
L486L
tp221
a(L142L
L146L
L65L
L70L
tp222
a(L136L
L140L
L457L
L467L
tp223
a(L174L
L184L
L381L
L395L
tp224
a(L369L
L375L
L323L
L335L
tp225
a(L146L
L149L
L58L
L62L
tp226
a(L108L
L117L
L450L
L462L
tp227
a(L432L
L441L
L217L
L224L
tp228
a(L178L
L180L
L498L
L505L
tp229
a(L6L
L11L
L355L
L359L
tp230
a(L403L
L418L
L170L
L177L
tp231
a(L231L
L237L
L477L
L482L
tp232
a(L288L
L306L
L366L
L407L
tp233
a(L217L
L219L
L245L
L248L
tp234
a(L383L
L394L
L287L
L296L
tp235
a(L441L
L445L
L217L
L221L
tp236
a(L235L
L237L
L371L
L374L
tp237
a(L231L
L237L
L254L
L271L
tp238
a(L441L
L447L
L386L
L390L
tp239
a(L451L
L459L
L347L
L350L
tp240
a(L251L
L288L
L381L
L398L
tp241
a(L447L
L451L
L170L
L180L
tp242
a(L146L
L154L
L33L
L55L
tp243
a(L98L
L104L
L90L
L97L
tp244
a(L441L
L447L
L248L
L263L
tp245
a(L6L
L9L
L259L
L263L
tp246
a(L451L
L459L
L381L
L398L
tp247
a(L326L
L336L
I0
L9L
tp248
a(L518L
L524L
L245L
L248L
tp249
a(L21L
L36L
L154L
L177L
tp250
a(L574L
L584L
L192L
L224L
tp251
a(L40L
L60L
L477L
L493L
tp252
a(L40L
L98L
L445L
L477L
tp253
a(L475L
L489L
L185L
L192L
tp254
a(L422L
L426L
L180L
L182L
tp255
a(L306L
L326L
L366L
L398L
tp256
a(L371L
L375L
L377L
L381L
tp257
a(L123L
L127L
L374L
L378L
tp258
a(L465L
L475L
L185L
L189L
tp259
a(L399L
L403L
L303L
L318L
tp260
a(L418L
L422L
L395L
L398L
tp261
a(L279L
L284L
L347L
L350L
tp262
a(L89L
L98L
L65L
L74L
tp263
a(L498L
L502L
L201L
L204L
tp264
a(L261L
L269L
L327L
L335L
tp265
a(L78L
L84L
L74L
L97L
tp266
a(L356L
L361L
L366L
L374L
tp267
a(L36L
L40L
L374L
L384L
tp268
a(L117L
L121L
L490L
L493L
tp269
a(L509L
L514L
L118L
L121L
tp270
a(L17L
L21L
L465L
L477L
tp271
a(I0
L4L
L393L
L395L
tp272
a(L27L
L31L
L192L
L195L
tp273
a(L369L
L383L
L343L
L350L
tp274
a(L403L
L407L
L164L
L166L
tp275
a(L317L
L322L
L17L
L20L
tp276
a(L60L
L64L
L113L
L118L
tp277
a(L306L
L536L
L445L
L507L
tp278
a(L132L
L136L
L453L
L462L
tp279
a(L371L
L375L
L26L
L30L
tp280
a(L127L
L132L
L470L
L482L
tp281
a(L365L
L394L
I0
L17L
tp282
a(L266L
L269L
L280L
L287L
tp283
a(L242L
L245L
L355L
L359L
tp284
a(L237L
L242L
L477L
L486L
tp285
a(L40L
L44L
L423L
L427L
tp286
a(I0
L6L
L296L
L311L
tp287
a(L27L
L31L
L113L
L121L
tp288
a(L284L
L298L
L185L
L192L
tp289
a(L479L
L489L
L185L
L192L
tp290
a(L228L
L235L
L240L
L245L
tp291
a(L189L
L193L
L295L
L296L
tp292
a(L15L
L21L
L335L
L359L
tp293
a(L512L
L518L
L259L
L263L
tp294
a(L502L
L509L
L287L
L296L
tp295
a(L154L
L193L
L318L
L381L
tp296
a(L51L
L60L
L113L
L121L
tp297
a(L326L
L330L
L9L
L17L
tp298
a(L292L
L298L
L150L
L154L
tp299
a(L371L
L375L
L148L
L154L
tp300
a(L251L
L255L
L271L
L274L
tp301
a(L34L
L36L
L106L
L110L
tp302
a(L223L
L251L
L33L
L38L
tp303
a(L407L
L409L
L142L
L145L
tp304
a(L292L
L298L
L450L
L454L
tp305
a(L108L
L117L
L259L
L271L
tp306
a(L223L
L231L
L323L
L335L
tp307
a(L315L
L317L
L419L
L427L
tp308
a(L56L
L64L
L410L
L414L
tp309
a(L66L
L70L
L433L
L445L
tp310
a(L528L
L533L
L407L
L423L
tp311
a(I0
L6L
L374L
L378L
tp312
a(L237L
L242L
L493L
L501L
tp313
a(L315L
L317L
L355L
L359L
tp314
a(L127L
L136L
L65L
L79L
tp315
a(L104L
L108L
L448L
L454L
tp316
a(L204L
L213L
L477L
L482L
tp317
a(L345L
L349L
L299L
L300L
tp318
a(L21L
L27L
L192L
L206L
tp319
a(L524L
L528L
L124L
L128L
tp320
a(L204L
L209L
L482L
L493L
tp321
a(L31L
L36L
L435L
L438L
tp322
a(L269L
L275L
L5L
L14L
tp323
a(L199L
L204L
L20L
L26L
tp324
a(L235L
L242L
L343L
L350L
tp325
a(L399L
L403L
L22L
L25L
tp326
a(L416L
L418L
L154L
L158L
tp327
a(L11L
L17L
L438L
L442L
tp328
a(L213L
L228L
L398L
L403L
tp329
a(L322L
L326L
L299L
L303L
tp330
a(L375L
L380L
L323L
L327L
tp331
a(L89L
L98L
L50L
L74L
tp332
a(L303L
L306L
L347L
L350L
tp333
a(L298L
L312L
L271L
L276L
tp334
a(L459L
L463L
L366L
L369L
tp335
a(L223L
L237L
L14L
L17L
tp336
a(L84L
L89L
L85L
L94L
tp337
a(L441L
L456L
L271L
L287L
tp338
a(L247L
L251L
L9L
L17L
tp339
a(L87L
L89L
L70L
L74L
tp340
a(L269L
L306L
L192L
L254L
tp341
a(L432L
L441L
L381L
L386L
tp342
a(L240L
L242L
L470L
L474L
tp343
a(I0
L11L
L407L
L430L
tp344
a(L21L
L27L
L102L
L106L
tp345
a(L465L
L470L
L131L
L137L
tp346
a(L392L
L394L
L296L
L300L
tp347
a(L428L
L441L
L137L
L145L
tp348
a(L536L
L566L
L287L
L303L
tp349
a(L432L
L437L
L189L
L192L
tp350
a(L269L
L273L
L188L
L189L
tp351
a(L345L
L356L
L366L
L381L
tp352
a(L422L
L441L
L145L
L161L
tp353
a(L509L
L518L
L355L
L366L
tp354
a(L209L
L213L
L17L
L22L
tp355
a(I0
L21L
L145L
L224L
tp356
a(L21L
L25L
L390L
L395L
tp357
a(L288L
L292L
L276L
L280L
tp358
a(L21L
L25L
L406L
L407L
tp359
a(L422L
L437L
L192L
L209L
tp360
a(L15L
L17L
L403L
L411L
tp361
a(L184L
L193L
L22L
L33L
tp362
a(L27L
L31L
L389L
L390L
tp363
a(L17L
L21L
L377L
L390L
tp364
a(L522L
L524L
L221L
L224L
tp365
a(L146L
L151L
L482L
L486L
tp366
a(L235L
L237L
L493L
L498L
tp367
a(L46L
L51L
L423L
L427L
tp368
a(L574L
L578L
L284L
L287L
tp369
a(I0
L6L
L395L
L407L
tp370
a(L154L
L165L
L30L
L50L
tp371
a(L422L
L428L
L142L
L145L
tp372
a(L266L
L269L
L271L
L276L
tp373
a(L98L
L102L
L41L
L42L
tp374
a(L98L
L108L
L454L
L462L
tp375
a(L21L
L31L
L454L
L462L
tp376
a(L470L
L475L
L369L
L374L
tp377
a(I0
L4L
L136L
L137L
tp378
a(L117L
L136L
L50L
L65L
tp379
a(L78L
L89L
L430L
L435L
tp380
a(L257L
L261L
L8L
L9L
tp381
a(L261L
L269L
L276L
L280L
tp382
a(L17L
L21L
L433L
L438L
tp383
a(L312L
L317L
L359L
L366L
tp384
a(L514L
L518L
L243L
L245L
tp385
a(L40L
L70L
L97L
L113L
tp386
a(L556L
L562L
L505L
L507L
tp387
a(L371L
L375L
L263L
L271L
tp388
a(L84L
L94L
L45L
L50L
tp389
a(L518L
L528L
L209L
L217L
tp390
a(L242L
L269L
L470L
L507L
tp391
a(L136L
L142L
L467L
L474L
tp392
a(L459L
L463L
L311L
L318L
tp393
a(L273L
L275L
L14L
L17L
tp394
a(L504L
L509L
L118L
L121L
tp395
a(L456L
L459L
L284L
L287L
tp396
a(L298L
L303L
L448L
L450L
tp397
a(L136L
L146L
L42L
L65L
tp398
a(L6L
L11L
L254L
L259L
tp399
a(L556L
L560L
L303L
L306L
tp400
a(L240L
L242L
L501L
L505L
tp401
a(L146L
L154L
L486L
L501L
tp402
a(L392L
L394L
L323L
L327L
tp403
a(L251L
L261L
L201L
L209L
tp404
a(L459L
L518L
L381L
L445L
tp405
a(L11L
L21L
L224L
L233L
tp406
a(L146L
L151L
L55L
L58L
tp407
a(L142L
L146L
L251L
L252L
tp408
a(L574L
L580L
L280L
L284L
tp409
a(L330L
L332L
L300L
L303L
tp410
a(L11L
L17L
L323L
L327L
tp411
a(L282L
L284L
L22L
L26L
tp412
a(L459L
L479L
L374L
L381L
tp413
a(L60L
L64L
L441L
L442L
tp414
a(L441L
L451L
L161L
L170L
tp415
a(L288L
L292L
L358L
L359L
tp416
a(L237L
L242L
L374L
L378L
tp417
a(L209L
L217L
L381L
L386L
tp418
a(L27L
L31L
L414L
L423L
tp419
a(L31L
L36L
L137L
L142L
tp420
a(L40L
L44L
L133L
L136L
tp421
a(L418L
L422L
L154L
L161L
tp422
a(L31L
L40L
L128L
L137L
tp423
a(L64L
L66L
L430L
L442L
tp424
a(L255L
L261L
L359L
L366L
tp425
a(L204L
L209L
L20L
L22L
tp426
a(L174L
L178L
L504L
L505L
tp427
a(L199L
L213L
L398L
L401L
tp428
a(L514L
L518L
L353L
L355L
tp429
a(L375L
L383L
L254L
L300L
tp430
a(L247L
L269L
L9L
L17L
tp431
a(L70L
L73L
L106L
L110L
tp432
a(L102L
L108L
L263L
L271L
tp433
a(L117L
L154L
L254L
L350L
tp434
a(L502L
L509L
L201L
L209L
tp435
a(L204L
L213L
L22L
L38L
tp436
a(L322L
L326L
L314L
L315L
tp437
a(L154L
L158L
L29L
L30L
tp438
a(L310L
L312L
L276L
L280L
tp439
a(L294L
L298L
L177L
L185L
tp440
a(L566L
L571L
L164L
L170L
tp441
a(L247L
L251L
L243L
L259L
tp442
a(L60L
L78L
L423L
L430L
tp443
a(L89L
L94L
L74L
L79L
tp444
a(L165L
L170L
L42L
L50L
tp445
a(L51L
L56L
L435L
L438L
tp446
a(L330L
L345L
L303L
L311L
tp447
a(L536L
L547L
L137L
L145L
tp448
a(L524L
L528L
L217L
L224L
tp449
a(I0
L4L
L243L
L245L
tp450
a(L383L
L422L
L414L
L445L
tp451
a(L518L
L536L
L192L
L209L
tp452
a(L247L
L251L
L363L
L366L
tp453
a(L459L
L463L
L350L
L353L
tp454
a(L36L
L46L
L94L
L97L
tp455
a(L231L
L235L
L12L
L14L
tp456
a(L264L
L269L
L5L
L9L
tp457
a(L459L
L465L
L185L
L192L
tp458
a(L479L
L483L
L358L
L359L
tp459
a(L383L
L387L
L153L
L154L
tp460
a(L498L
L509L
L192L
L201L
tp461
a(L219L
L231L
L254L
L259L
tp462
a(L306L
L310L
L148L
L150L
tp463
a(L56L
L60L
L501L
L504L
tp464
a(L524L
L528L
L318L
L321L
tp465
a(L312L
L317L
L271L
L280L
tp466
a(L154L
L174L
L254L
L318L
tp467
a(L223L
L237L
L245L
L254L
tp468
a(L17L
L21L
L465L
L470L
tp469
a(L447L
L451L
L257L
L263L
tp470
a(L204L
L242L
L335L
L343L
tp471
a(L518L
L528L
L248L
L254L
tp472
a(L306L
L326L
I0
L17L
tp473
a(L251L
L261L
L33L
L42L
tp474
a(L518L
L536L
L430L
L445L
tp475
a(L502L
L504L
L284L
L287L
tp476
a(L146L
L160L
L252L
L254L
tp477
a(L154L
L158L
L485L
L486L
tp478
a(L132L
L136L
L480L
L482L
tp479
a(L204L
L209L
L38L
L42L
tp480
a(L279L
L284L
L189L
L192L
tp481
a(L494L
L518L
L318L
L323L
tp482
a(L60L
L84L
L423L
L430L
tp483
a(L242L
L269L
L366L
L381L
tp484
a(L432L
L451L
L343L
L350L
tp485
a(L422L
L459L
L398L
L445L
tp486
a(L288L
L292L
L157L
L158L
tp487
a(L78L
L82L
L97L
L102L
tp488
a(L21L
L27L
L407L
L414L
tp489
a(L361L
L365L
L371L
L374L
tp490
a(L504L
L509L
L338L
L343L
tp491
a(L142L
L146L
L485L
L490L
tp492
a(L251L
L255L
L209L
L212L
tp493
a(L407L
L409L
L150L
L154L
tp494
a(L389L
L409L
L17L
L22L
tp495
a(L21L
L40L
L462L
L507L
tp496
a(L184L
L193L
L296L
L303L
tp497
a(L310L
L312L
L350L
L355L
tp498
a(L261L
L266L
L280L
L284L
tp499
a(L441L
L447L
L221L
L233L
tp500
a(L459L
L463L
L358L
L363L
tp501
a(L275L
L279L
L188L
L192L
tp502
a(L117L
L121L
L453L
L454L
tp503
a(L351L
L356L
L271L
L274L
tp504
a(L566L
L574L
L170L
L177L
tp505
a(L102L
L117L
L303L
L318L
tp506
a(L451L
L456L
L327L
L330L
tp507
a(L66L
L70L
L82L
L90L
tp508
a(L251L
L261L
L470L
L477L
tp509
a(L51L
L56L
L121L
L125L
tp510
a(L255L
L257L
L327L
L332L
tp511
a(L142L
L146L
L33L
L42L
tp512
a(L518L
L522L
L369L
L371L
tp513
a(L98L
L117L
L462L
L477L
tp514
a(L6L
L11L
L131L
L137L
tp515
a(L494L
L498L
L192L
L200L
tp516
a(L284L
L288L
L161L
L166L
tp517
a(L514L
L518L
L257L
L259L
tp518
a(L193L
L223L
L318L
L335L
tp519
a(L426L
L428L
L137L
L142L
tp520
a(L432L
L435L
L185L
L189L
tp521
a(L136L
L140L
L490L
L493L
tp522
a(L288L
L306L
I0
L22L
tp523
a(L383L
L422L
L192L
L254L
tp524
a(L279L
L288L
L398L
L407L
tp525
a(L432L
L451L
L390L
L398L
tp526
a(L257L
L261L
L42L
L45L
tp527
a(L261L
L266L
L17L
L22L
tp528
a(L489L
L498L
L335L
L366L
tp529
a(L345L
L351L
L350L
L366L
tp530
a(L199L
L202L
L359L
L363L
tp531
a(L284L
L288L
L457L
L470L
tp532
a(L422L
L441L
L224L
L254L
tp533
a(L312L
L317L
L330L
L335L
tp534
a(L184L
L187L
L280L
L284L
tp535
a(L574L
L589L
L224L
L271L
tp536
a(L51L
L56L
L417L
L427L
tp537
a(L279L
L288L
L17L
L22L
tp538
a(L231L
L235L
L482L
L485L
tp539
a(L441L
L459L
L350L
L374L
tp540
a(L11L
L17L
L398L
L403L
tp541
a(L154L
L158L
L251L
L252L
tp542
a(L375L
L383L
L271L
L287L
tp543
a(L580L
L584L
L188L
L192L
tp544
a(L11L
L15L
L435L
L438L
tp545
a(L445L
L447L
L170L
L174L
tp546
a(L394L
L397L
L154L
L158L
tp547
a(L306L
L312L
L150L
L154L
tp548
a(I0
L4L
L280L
L284L
tp549
a(L383L
L387L
L296L
L299L
tp550
a(L509L
L514L
L350L
L355L
tp551
a(L228L
L231L
L355L
L359L
tp552
a(L21L
L25L
L362L
L363L
tp553
a(L44L
L46L
L90L
L94L
tp554
a(L494L
L498L
L306L
L318L
tp555
a(L375L
L441L
L350L
L381L
tp556
a(L437L
L441L
L327L
L332L
tp557
a(L98L
L108L
L335L
L343L
tp558
a(L36L
L40L
L362L
L363L
tp559
a(L204L
L209L
L474L
L477L
tp560
a(L320L
L326L
L292L
L296L
tp561
a(L574L
L580L
L182L
L192L
tp562
a(L6L
L17L
L240L
L248L
tp563
a(L255L
L269L
L209L
L224L
tp564
a(L219L
L223L
L240L
L248L
tp565
a(L356L
L365L
L374L
L381L
tp566
a(L441L
L445L
L233L
L237L
tp567
a(L228L
L242L
L474L
L477L
tp568
a(L326L
L332L
L296L
L300L
tp569
a(L184L
L193L
L381L
L398L
tp570
a(L273L
L275L
L185L
L189L
tp571
a(L556L
L562L
L154L
L161L
tp572
a(L4L
L17L
L430L
L435L
tp573
a(L552L
L556L
L485L
L486L
tp574
a(L536L
L542L
L450L
L470L
tp575
a(L226L
L231L
L259L
L263L
tp576
a(L98L
L117L
L271L
L303L
tp577
a(L21L
L27L
L386L
L390L
tp578
a(L98L
L102L
L303L
L306L
tp579
a(L184L
L189L
L284L
L296L
tp580
a(L11L
L15L
L417L
L423L
tp581
a(L489L
L494L
L330L
L335L
tp582
a(L184L
L189L
L42L
L47L
tp583
a(L17L
L31L
L121L
L128L
tp584
a(L306L
L312L
L363L
L366L
tp585
a(L142L
L146L
L504L
L507L
tp586
a(L60L
L64L
L433L
L435L
tp587
a(L255L
L261L
L224L
L233L
tp588
a(L584L
L587L
L197L
L201L
tp589
a(L441L
L459L
L137L
L161L
tp590
a(L261L
L269L
L192L
L209L
tp591
a(L174L
L178L
L25L
L26L
tp592
a(L36L
L40L
L137L
L140L
tp593
a(L257L
L261L
L279L
L284L
tp594
a(L11L
L17L
L474L
L477L
tp595
a(L17L
L21L
L398L
L414L
tp596
a(I0
L11L
L311L
L343L
tp597
a(L127L
L136L
L462L
L470L
tp598
a(L383L
L387L
L26L
L29L
tp599
a(L322L
L326L
L17L
L26L
tp600
a(L242L
L251L
L263L
L268L
tp601
a(L269L
L306L
L477L
L507L
tp602
a(L136L
L154L
L350L
L381L
tp603
a(L237L
L240L
L248L
L252L
tp604
a(L279L
L288L
L166L
L170L
tp605
a(L536L
L540L
L131L
L133L
tp606
a(L552L
L556L
L303L
L308L
tp607
a(L306L
L310L
L346L
L347L
tp608
a(L117L
L127L
L462L
L486L
tp609
a(L213L
L261L
L17L
L33L
tp610
a(L498L
L502L
L299L
L300L
tp611
a(L247L
L251L
L386L
L390L
tp612
a(L298L
L306L
L177L
L192L
tp613
a(L11L
L21L
L390L
L398L
tp614
a(L403L
L413L
L381L
L398L
tp615
a(L44L
L51L
L419L
L423L
tp616
a(L15L
L17L
L106L
L110L
tp617
a(L394L
L403L
L287L
L303L
tp618
a(L11L
L15L
L318L
L323L
tp619
a(L235L
L237L
L374L
L381L
tp620
a(L356L
L375L
L254L
L263L
tp621
a(L432L
L437L
L327L
L343L
tp622
a(L98L
L104L
L442L
L454L
tp623
a(L117L
L123L
L486L
L490L
tp624
a(L235L
L242L
L366L
L374L
tp625
a(L356L
L361L
L263L
L271L
tp626
a(L82L
L84L
L442L
L445L
tp627
a(L70L
L73L
L419L
L423L
tp628
a(L365L
L371L
L378L
L381L
tp629
a(L509L
L518L
L121L
L128L
tp630
a(L17L
L21L
L381L
L390L
tp631
a(L326L
L336L
L287L
L296L
tp632
a(L498L
L518L
L303L
L318L
tp633
a(L264L
L266L
L323L
L327L
tp634
a(L261L
L269L
L189L
L192L
tp635
a(L536L
L574L
L192L
L287L
tp636
a(L345L
L383L
L381L
L445L
tp637
a(L78L
L84L
L47L
L50L
tp638
a(L509L
L518L
L263L
L303L
tp639
a(L536L
L540L
L315L
L318L
tp640
a(L40L
L46L
L128L
L133L
tp641
a(L11L
L15L
L248L
L252L
tp642
a(L242L
L247L
L359L
L366L
tp643
a(L504L
L509L
L118L
L128L
tp644
a(L422L
L426L
L140L
L142L
tp645
a(L146L
L154L
L477L
L482L
tp646
a(L492L
L498L
L323L
L327L
tp647
a(L459L
L470L
L374L
L381L
tp648
a(L365L
L369L
L148L
L150L
tp649
a(L269L
L279L
L467L
L477L
tp650
a(L261L
L266L
L467L
L470L
tp651
a(L288L
L292L
L453L
L454L
tp652
a(L437L
L445L
L136L
L137L
tp653
a(L132L
L136L
L493L
L501L
tp654
a(L174L
L178L
L248L
L252L
tp655
a(L36L
L40L
L94L
L97L
tp656
a(L11L
L15L
L473L
L474L
tp657
a(L6L
L9L
L403L
L407L
tp658
a(L136L
L140L
L36L
L38L
tp659
a(L447L
L451L
L384L
L390L
tp660
a(L251L
L255L
L200L
L201L
tp661
a(L547L
L552L
L477L
L486L
tp662
a(L428L
L432L
L182L
L185L
tp663
a(L204L
L219L
L386L
L398L
tp664
a(L11L
L21L
L477L
L493L
tp665
a(L251L
L269L
L366L
L381L
tp666
a(L219L
L223L
L393L
L398L
tp667
a(L235L
L242L
L486L
L493L
tp668
a(L294L
L298L
L271L
L279L
tp669
a(L199L
L204L
L493L
L507L
tp670
a(L306L
L383L
L161L
L254L
tp671
a(L213L
L217L
L254L
L257L
tp672
a(L317L
L345L
L414L
L445L
tp673
a(L589L
L593L
L262L
L268L
tp674
a(L199L
L204L
L384L
L390L
tp675
a(L151L
L160L
L381L
L386L
tp676
a(L556L
L574L
L177L
L192L
tp677
a(L31L
L40L
L445L
L462L
tp678
a(L351L
L356L
L363L
L366L
tp679
a(L547L
L552L
L142L
L145L
tp680
a(L306L
L310L
L362L
L363L
tp681
a(L303L
L306L
L442L
L450L
tp682
a(L174L
L193L
L303L
L318L
tp683
a(L383L
L441L
L350L
L381L
tp684
a(L584L
L589L
L212L
L224L
tp685
a(L441L
L451L
L237L
L248L
tp686
a(L416L
L418L
L166L
L170L
tp687
a(L202L
L204L
L482L
L490L
tp688
a(L498L
L502L
L124L
L125L
tp689
a(L180L
L184L
L496L
L507L
tp690
a(L528L
L536L
L240L
L254L
tp691
a(L383L
L441L
L254L
L287L
tp692
a(L498L
L504L
L327L
L343L
tp693
a(L78L
L82L
L435L
L442L
tp694
a(L292L
L294L
L182L
L185L
tp695
a(L261L
L269L
L224L
L240L
tp696
a(L441L
L445L
L170L
L173L
tp697
a(L489L
L498L
L177L
L192L
tp698
a(L269L
L279L
L271L
L284L
tp699
a(L228L
L231L
L355L
L366L
tp700
a(L98L
L117L
L42L
L65L
tp701
a(L21L
L25L
L384L
L386L
tp702
a(L562L
L566L
L157L
L161L
tp703
a(L485L
L489L
L338L
L350L
tp704
a(L422L
L432L
L381L
L398L
tp705
a(L193L
L204L
L335L
L350L
tp706
a(L64L
L66L
L435L
L438L
tp707
a(L223L
L228L
L38L
L42L
tp708
a(L228L
L242L
L355L
L366L
tp709
a(L251L
L257L
L332L
L335L
tp710
a(L279L
L288L
L271L
L280L
tp711
a(L536L
L547L
L470L
L493L
tp712
a(L193L
L204L
L390L
L398L
tp713
a(L231L
L235L
L350L
L355L
tp714
a(L459L
L470L
L137L
L145L
tp715
a(L315L
L317L
L280L
L284L
tp716
a(L257L
L261L
L326L
L335L
tp717
a(L165L
L193L
L33L
L42L
tp718
a(L108L
L117L
L82L
L87L
tp719
a(L213L
L223L
L33L
L42L
tp720
a(L394L
L432L
L318L
L350L
tp721
a(L528L
L536L
L209L
L224L
tp722
a(L21L
L25L
L100L
L102L
tp723
a(L146L
L151L
L501L
L507L
tp724
a(L403L
L422L
L177L
L192L
tp725
a(L498L
L514L
L343L
L350L
tp726
a(L403L
L409L
L166L
L170L
tp727
a(L498L
L504L
L300L
L303L
tp728
a(L479L
L489L
L359L
L366L
tp729
a(L536L
L540L
L441L
L450L
tp730
a(L165L
L174L
L26L
L33L
tp731
a(L223L
L231L
L14L
L17L
tp732
a(L547L
L556L
L486L
L493L
tp733
a(L312L
L317L
L338L
L353L
tp734
a(L237L
L251L
L330L
L335L
tp735
a(L251L
L255L
L359L
L362L
tp736
a(L336L
L345L
L287L
L303L
tp737
a(L136L
L142L
L493L
L507L
tp738
a(L98L
L108L
L82L
L90L
tp739
a(L345L
L349L
L280L
L287L
tp740
a(L25L
L27L
L378L
L381L
tp741
a(L17L
L21L
L105L
L109L
tp742
a(L25L
L27L
L450L
L454L
tp743
a(L17L
L21L
L121L
L128L
tp744
a(L413L
L422L
L381L
L390L
tp745
a(L413L
L418L
L170L
L177L
tp746
a(L542L
L547L
L465L
L470L
tp747
a(L432L
L441L
L318L
L327L
tp748
a(L479L
L485L
L177L
L182L
tp749
a(L459L
L465L
L363L
L366L
tp750
a(L170L
L174L
L42L
L45L
tp751
a(L231L
L235L
L369L
L371L
tp752
a(L204L
L209L
L482L
L496L
tp753
a(L282L
L284L
L185L
L189L
tp754
a(L11L
L31L
L128L
L145L
tp755
a(L536L
L556L
L493L
L507L
tp756
a(L502L
L504L
L121L
L125L
tp757
a(L231L
L235L
L326L
L327L
tp758
a(L98L
L117L
L318L
L335L
tp759
a(L322L
L326L
L321L
L323L
tp760
a(L102L
L108L
L343L
L359L
tp761
a(L9L
L11L
L343L
L347L
tp762
a(L447L
L451L
L136L
L137L
tp763
a(L21L
L27L
L419L
L423L
tp764
a(L6L
L11L
L263L
L268L
tp765
a(L60L
L66L
L442L
L445L
tp766
a(L494L
L498L
L124L
L128L
tp767
a(L483L
L489L
L350L
L359L
tp768
a(L306L
L317L
L438L
L445L
tp769
a(L566L
L569L
L296L
L300L
tp770
a(L21L
L25L
L106L
L109L
tp771
a(L312L
L317L
L427L
L430L
tp772
a(I0
L15L
L366L
L374L
tp773
a(L123L
L132L
L457L
L462L
tp774
a(L566L
L571L
L292L
L296L
tp775
a(L223L
L228L
L243L
L245L
tp776
a(L108L
L117L
L42L
L50L
tp777
a(L498L
L509L
L350L
L366L
tp778
a(L502L
L504L
L323L
L327L
tp779
a(L36L
L40L
L102L
L106L
tp780
a(L345L
L356L
L254L
L271L
tp781
a(L317L
L326L
L335L
L350L
tp782
a(L522L
L524L
L240L
L245L
tp783
a(L213L
L223L
L248L
L254L
tp784
a(L518L
L528L
L398L
L430L
tp785
a(L498L
L504L
L125L
L128L
tp786
a(L34L
L36L
L374L
L378L
tp787
a(L127L
L136L
L366L
L378L
tp788
a(L245L
L251L
L259L
L263L
tp789
a(L247L
L251L
L350L
L355L
tp790
a(L279L
L288L
L470L
L477L
tp791
a(L375L
L380L
L330L
L335L
tp792
a(L261L
L275L
L189L
L192L
tp793
a(L479L
L518L
L366L
L381L
tp794
a(L21L
L27L
L145L
L154L
tp795
a(L165L
L170L
L252L
L254L
tp796
a(L251L
L261L
L350L
L359L
tp797
a(L383L
L394L
L154L
L161L
tp798
a(I0
L6L
L245L
L248L
tp799
a(I0
L11L
L137L
L145L
tp800
a(L251L
L269L
L240L
L254L
tp801
a(L117L
L123L
L493L
L501L
tp802
a(L70L
L78L
L79L
L82L
tp803
a(L275L
L279L
L17L
L20L
tp804
a(L514L
L518L
L251L
L254L
tp805
a(L275L
L279L
L398L
L406L
tp806
a(L394L
L403L
L5L
L17L
tp807
a(L284L
L288L
L170L
L177L
tp808
a(L369L
L371L
L340L
L343L
tp809
a(L459L
L479L
L145L
L185L
tp810
a(L394L
L399L
L22L
L26L
tp811
a(L288L
L306L
L161L
L177L
tp812
a(L82L
L89L
L50L
L58L
tp813
a(L483L
L485L
L182L
L185L
tp814
a(L142L
L151L
L381L
L384L
tp815
a(L422L
L432L
L209L
L224L
tp816
a(L11L
L15L
L381L
L386L
tp817
a(L11L
L17L
L386L
L390L
tp818
a(L27L
L31L
L445L
L454L
tp819
a(L17L
L21L
L359L
L363L
tp820
a(L6L
L11L
L381L
L393L
tp821
a(L441L
L451L
L263L
L271L
tp822
a(L27L
L31L
L145L
L148L
tp823
a(L165L
L174L
L381L
L393L
tp824
a(L40L
L51L
L493L
L507L
tp825
a(L4L
L6L
L378L
L386L
tp826
a(L566L
L574L
L287L
L292L
tp827
a(L21L
L25L
L206L
L217L
tp828
a(L15L
L17L
L125L
L128L
tp829
a(L310L
L312L
L17L
L22L
tp830
a(L60L
L117L
L477L
L507L
tp831
a(L160L
L165L
L381L
L390L
tp832
a(L31L
L36L
L363L
L374L
tp833
a(L180L
L184L
L25L
L26L
tp834
a(L242L
L269L
L335L
L350L
tp835
a(L193L
L199L
L350L
L390L
tp836
a(L127L
L136L
L36L
L50L
tp837
a(L394L
L403L
L158L
L161L
tp838
a(L375L
L383L
L150L
L161L
tp839
a(L312L
L317L
L145L
L154L
tp840
a(L441L
L451L
L318L
L332L
tp841
a(L94L
L98L
L335L
L338L
tp842
a(L418L
L422L
L390L
L393L
tp843
a(L27L
L40L
L97L
L102L
tp844
a(L310L
L312L
L335L
L347L
tp845
a(L326L
L345L
L335L
L414L
tp846
a(L60L
L66L
L414L
L423L
tp847
a(L113L
L117L
L254L
L259L
tp848
a(L479L
L498L
L128L
L177L
tp849
a(L292L
L294L
L154L
L158L
tp850
a(L269L
L279L
L343L
L350L
tp851
a(L104L
L108L
L359L
L363L
tp852
a(L136L
L142L
L38L
L42L
tp853
a(L451L
L459L
L161L
L182L
tp854
a(L345L
L351L
L271L
L280L
tp855
a(L228L
L231L
L474L
L477L
tp856
a(L251L
L255L
L236L
L237L
tp857
a(L31L
L34L
L359L
L363L
tp858
a(L556L
L560L
L148L
L154L
tp859
a(L502L
L504L
L296L
L300L
tp860
a(L180L
L184L
L42L
L45L
tp861
a(L242L
L251L
L381L
L386L
tp862
a(L349L
L365L
I0
L5L
tp863
a(L261L
L264L
L22L
L26L
tp864
a(L509L
L518L
L263L
L271L
tp865
a(L298L
L306L
L450L
L462L
tp866
a(L261L
L266L
L274L
L276L
tp867
a(L261L
L266L
L26L
L33L
tp868
a(L117L
L127L
L42L
L50L
tp869
a(L108L
L113L
L257L
L259L
tp870
a(L394L
L399L
I0
L5L
tp871
a(L432L
L437L
L386L
L390L
tp872
a(L94L
L98L
L74L
L94L
tp873
a(I0
L11L
L359L
L366L
tp874
a(L310L
L312L
L145L
L150L
tp875
a(L187L
L193L
L482L
L486L
tp876
a(L255L
L261L
L192L
L201L
tp877
a(L251L
L255L
L330L
L332L
tp878
a(L31L
L34L
L102L
L106L
tp879
a(L504L
L509L
L296L
L303L
tp880
a(L123L
L127L
L252L
L254L
tp881
asS'adj'
p882
(dp883
g669
(lp884
g150
ag334
ag194
asg462
(lp885
g784
ag468
ag238
ag576
asg4
(lp886
g111
ag482
asg5
(lp887
g118
ag841
ag507
asg6
(lp888
g617
asg143
(lp889
g288
ag58
ag213
ag302
asg8
(lp890
g463
ag548
ag215
ag812
ag299
ag88
asg3
(lp891
g737
ag48
asg496
(lp892
g253
ag252
ag825
ag271
ag376
ag678
ag665
ag40
asg80
(lp893
g630
ag45
asg12
(lp894
g686
ag245
asg13
(lp895
g55
ag691
ag472
ag783
ag249
asg431
(lp896
g323
ag610
ag198
ag610
ag528
ag50
ag381
ag457
asg15
(lp897
g287
asg432
(lp898
g386
ag219
asg18
(lp899
g247
ag540
ag171
ag405
ag794
ag377
ag193
asg19
(lp900
g530
ag530
ag679
asg762
(lp901
g597
ag24
asg20
(lp902
g344
ag573
asg21
(lp903
g597
ag24
ag874
ag24
ag230
asg581
(lp904
g344
ag51
asg434
(lp905
g881
ag138
ag477
ag467
ag296
ag848
ag306
ag577
ag506
ag759
ag177
ag33
ag603
asg24
(lp906
g21
ag762
ag21
asg25
(lp907
g447
ag737
ag632
ag569
ag410
asg26
(lp908
g91
ag663
ag206
ag255
asg27
(lp909
g136
ag260
asg28
(lp910
g447
ag137
asg29
(lp911
g597
ag411
asg30
(lp912
g42
ag563
ag799
ag450
asg31
(lp913
g650
ag791
ag532
asg578
(lp914
g364
ag357
ag189
ag363
ag702
asg32
(lp915
g295
ag639
ag183
ag476
asg33
(lp916
g177
ag434
ag603
ag14
ag788
asg583
(lp917
g861
ag718
asg35
(lp918
g819
ag678
ag253
ag322
ag115
ag414
ag766
ag218
ag187
ag446
asg36
(lp919
g319
ag273
ag356
ag250
asg37
(lp920
g68
ag835
ag484
ag797
ag425
asg38
(lp921
g362
ag101
ag324
asg40
(lp922
g496
ag44
ag665
asg41
(lp923
g636
ag536
ag409
asg42
(lp924
g356
ag30
ag563
ag406
ag192
asg43
(lp925
g614
ag205
ag357
asg44
(lp926
g40
ag665
ag221
asg45
(lp927
g85
ag630
ag320
ag80
asg46
(lp928
g693
ag529
ag647
ag582
asg47
(lp929
g491
asg50
(lp930
g339
ag431
asg51
(lp931
g573
ag344
ag581
asg52
(lp932
g701
ag869
ag84
asg53
(lp933
g810
ag854
asg54
(lp934
g103
ag293
asg291
(lp935
g468
ag776
ag468
asg56
(lp936
g807
ag495
asg57
(lp937
g77
ag495
asg58
(lp938
g423
ag641
ag143
ag213
ag288
ag584
ag386
ag297
ag510
asg59
(lp939
g111
ag87
ag640
asg60
(lp940
g137
ag846
ag534
ag760
ag734
ag846
ag256
ag734
ag314
ag384
asg744
(lp941
g169
asg9
(lp942
g146
ag858
ag833
asg64
(lp943
g588
ag180
ag155
ag857
asg65
(lp944
g777
ag701
asg156
(lp945
g835
ag851
ag131
asg67
(lp946
g443
ag483
asg68
(lp947
g241
ag37
ag484
ag851
ag262
ag416
ag233
asg69
(lp948
g233
ag256
ag86
ag172
asg70
(lp949
g203
ag802
ag203
ag654
asg71
(lp950
g380
ag483
asg72
(lp951
g517
ag812
ag88
ag487
ag850
asg73
(lp952
g645
ag372
ag353
ag304
ag148
ag494
ag327
ag422
asg10
(lp953
g317
ag560
asg75
(lp954
g724
asg76
(lp955
g307
ag471
ag758
ag735
asg77
(lp956
g282
ag280
ag282
ag599
ag495
ag57
asg79
(lp957
g519
ag307
asg467
(lp958
g477
ag796
ag153
ag434
ag296
ag214
ag188
ag188
ag683
asg81
(lp959
g380
ag694
ag105
ag253
ag483
ag310
asg82
(lp960
g763
asg83
(lp961
g161
ag609
ag624
asg84
(lp962
g837
ag869
ag52
asg85
(lp963
g786
ag644
ag630
ag45
ag320
ag606
ag104
ag448
ag182
ag461
ag62
ag452
ag849
ag698
asg86
(lp964
g673
ag846
ag256
ag69
ag172
asg87
(lp965
g111
ag349
ag59
ag607
asg88
(lp966
g812
ag8
ag299
ag850
ag72
asg89
(lp967
g274
ag556
ag126
asg90
(lp968
g130
asg307
(lp969
g758
ag76
ag471
ag519
ag79
asg92
(lp970
g609
ag161
ag281
ag479
asg93
(lp971
g241
ag207
ag241
ag806
asg94
(lp972
g596
ag489
asg95
(lp973
g435
ag62
asg96
(lp974
g671
ag524
ag798
ag838
ag275
ag727
ag231
ag725
asg97
(lp975
g552
ag709
asg98
(lp976
g825
ag220
ag464
asg445
(lp977
g371
ag718
ag751
asg100
(lp978
g772
ag673
ag769
asg591
(lp979
g793
ag341
ag564
ag877
ag404
asg102
(lp980
g253
ag152
ag623
asg103
(lp981
g54
ag293
asg104
(lp982
g85
ag448
ag606
asg105
(lp983
g81
asg106
(lp984
g498
ag734
ag608
ag845
asg107
(lp985
g532
ag144
ag866
ag652
ag305
asg108
(lp986
g764
ag419
asg109
(lp987
g690
ag427
ag229
asg110
(lp988
g590
ag715
ag346
asg299
(lp989
g8
ag850
ag88
asg112
(lp990
g523
ag804
ag538
ag323
ag323
ag394
asg113
(lp991
g374
ag701
ag332
ag389
asg114
(lp992
g283
ag699
asg115
(lp993
g218
ag35
ag322
asg116
(lp994
g384
ag585
ag681
asg117
(lp995
g61
ag615
ag745
ag843
ag261
asg579
(lp996
g577
ag506
asg118
(lp997
g49
ag393
ag721
ag748
ag841
ag5
ag692
ag618
ag260
ag692
ag338
ag396
asg119
(lp998
g39
asg120
(lp999
g821
ag817
ag631
ag773
ag312
ag826
ag773
ag364
asg121
(lp1000
g186
ag186
ag508
asg122
(lp1001
g701
ag379
ag332
ag873
ag739
ag719
ag216
ag315
asg123
(lp1002
g376
ag743
asg124
(lp1003
g202
ag876
ag690
asg125
(lp1004
g594
asg126
(lp1005
g556
ag89
ag556
asg128
(lp1006
g197
ag399
ag246
ag765
ag549
asg303
(lp1007
g610
ag720
ag708
ag610
ag474
asg130
(lp1008
g646
ag90
asg132
(lp1009
g847
ag483
ag587
ag537
ag537
asg39
(lp1010
g119
ag555
asg134
(lp1011
g668
ag285
ag232
ag539
asg135
(lp1012
g671
ag840
ag215
ag671
ag649
ag174
ag201
asg595
(lp1013
g665
ag271
ag657
ag209
asg138
(lp1014
g434
asg139
(lp1015
g519
ag683
asg140
(lp1016
g846
ag137
asg141
(lp1017
g511
asg142
(lp1018
g381
asg7
(lp1019
g800
ag515
ag378
asg144
(lp1020
g278
ag602
ag532
ag791
ag107
ag866
asg145
(lp1021
g870
ag306
ag433
ag133
asg146
(lp1022
g9
asg147
(lp1023
g656
ag455
ag554
asg148
(lp1024
g304
ag73
ag494
asg149
(lp1025
g794
ag513
ag405
ag785
asg150
(lp1026
g801
ag341
ag442
ag789
ag601
ag301
ag373
ag699
ag711
ag194
ag669
ag334
ag671
ag63
ag334
ag466
ag196
asg151
(lp1027
g398
ag315
ag222
asg152
(lp1028
g102
ag623
asg153
(lp1029
g467
ag655
ag214
ag796
asg154
(lp1030
g254
asg608
(lp1031
g333
ag106
ag845
asg155
(lp1032
g801
ag180
ag857
ag64
asg66
(lp1033
g785
ag311
asg614
(lp1034
g357
ag43
ag541
ag596
ag821
ag818
ag364
asg157
(lp1035
g225
ag792
ag274
ag809
ag274
asg158
(lp1036
g438
ag371
ag243
asg600
(lp1037
g473
ag276
asg160
(lp1038
g210
ag605
asg456
(lp1039
g732
ag336
asg161
(lp1040
g83
ag92
asg162
(lp1041
g572
ag703
ag182
ag677
ag441
ag505
asg163
(lp1042
g360
ag816
ag228
ag17
asg165
(lp1043
g263
ag332
ag813
asg166
(lp1044
g364
ag741
asg167
(lp1045
g542
asg168
(lp1046
g241
ag34
asg169
(lp1047
g744
ag584
ag288
asg170
(lp1048
g605
ag808
asg171
(lp1049
g540
ag191
ag540
ag18
asg172
(lp1050
g86
ag69
asg127
(lp1051
g512
ag853
ag659
asg174
(lp1052
g135
ag201
ag300
ag649
asg176
(lp1053
g353
ag415
ag200
asg49
(lp1054
g118
asg437
(lp1055
g137
asg177
(lp1056
g434
ag33
ag759
ag558
ag761
ag14
ag761
ag852
asg180
(lp1057
g801
ag696
ag588
ag64
ag155
asg181
(lp1058
g628
ag483
ag847
asg182
(lp1059
g85
ag636
ag859
ag572
ag448
ag680
ag162
ag677
asg183
(lp1060
g639
ag32
asg62
(lp1061
g85
ag452
ag390
ag461
ag435
ag95
asg185
(lp1062
g566
ag629
asg235
(lp1063
g430
ag692
ag618
ag550
ag347
asg187
(lp1064
g446
ag35
ag218
asg188
(lp1065
g467
ag214
ag535
ag580
ag467
ag683
ag580
ag497
asg189
(lp1066
g578
asg190
(lp1067
g556
ag637
ag451
ag615
ag61
asg792
(lp1068
g157
ag225
asg191
(lp1069
g556
ag540
ag171
asg192
(lp1070
g563
ag42
ag406
ag74
asg193
(lp1071
g459
ag729
ag794
ag18
ag377
asg194
(lp1072
g711
ag150
ag669
ag358
asg294
(lp1073
g111
ag639
ag518
asg198
(lp1074
g610
ag336
ag431
asg179
(lp1075
g746
ag231
ag727
asg199
(lp1076
g756
ag387
asg765
(lp1077
g246
ag128
asg201
(lp1078
g671
ag135
ag839
ag174
ag300
asg245
(lp1079
g533
ag686
ag12
ag692
ag822
ag470
asg203
(lp1080
g831
ag738
ag802
ag70
ag70
ag654
asg205
(lp1081
g596
ag43
asg206
(lp1082
g360
ag725
ag521
ag350
ag255
ag26
asg612
(lp1083
g241
ag862
asg297
(lp1084
g277
ag386
ag58
ag510
asg208
(lp1085
g759
asg209
(lp1086
g469
ag271
ag595
ag657
asg210
(lp1087
g160
ag605
ag517
asg211
(lp1088
g239
ag526
ag872
asg315
(lp1089
g379
ag151
ag122
asg214
(lp1090
g153
ag655
ag467
ag188
asg91
(lp1091
g725
ag231
ag26
asg216
(lp1092
g719
ag122
asg217
(lp1093
g505
ag677
ag562
asg218
(lp1094
g115
ag368
ag286
ag35
ag187
asg219
(lp1095
g266
ag488
ag508
ag186
ag386
ag432
asg221
(lp1096
g665
ag44
asg222
(lp1097
g398
ag151
asg223
(lp1098
g279
ag598
ag392
asg224
(lp1099
g296
ag824
ag570
asg225
(lp1100
g157
ag331
ag792
asg184
(lp1101
g250
ag795
ag250
asg227
(lp1102
g195
ag503
ag22
ag514
ag316
ag375
asg228
(lp1103
g533
ag236
ag500
ag816
ag163
ag17
asg229
(lp1104
g690
ag690
ag109
ag427
asg230
(lp1105
g874
ag21
asg231
(lp1106
g96
ag725
ag727
ag179
ag687
ag91
asg232
(lp1107
g568
ag285
ag539
ag134
asg233
(lp1108
g585
ag256
ag69
ag68
ag241
ag525
asg234
(lp1109
g784
ag565
asg236
(lp1110
g17
ag228
ag500
asg237
(lp1111
g752
asg238
(lp1112
g468
ag462
ag576
asg239
(lp1113
g342
ag211
ag526
ag660
asg316
(lp1114
g227
ag375
ag623
asg240
(lp1115
g454
ag540
ag485
asg241
(lp1116
g484
ag68
ag862
ag612
ag168
ag207
ag93
ag233
ag93
ag806
ag525
asg242
(lp1117
g854
ag415
ag546
ag854
asg243
(lp1118
g371
ag158
ag512
ag398
ag398
ag407
asg244
(lp1119
g873
ag739
asg246
(lp1120
g765
ag128
ag399
asg247
(lp1121
g405
ag18
ag486
ag660
ag526
asg619
(lp1122
g597
ag411
asg249
(lp1123
g385
ag472
ag13
ag783
asg250
(lp1124
g356
ag795
ag184
ag184
ag356
ag36
asg251
(lp1125
g562
ag544
ag636
ag536
ag589
ag685
asg252
(lp1126
g496
ag253
ag831
ag825
ag220
asg253
(lp1127
g35
ag766
ag310
ag81
ag678
ag496
ag252
ag831
ag627
ag102
ag831
ag623
ag375
ag514
asg254
(lp1128
g154
ag810
ag259
ag698
ag814
ag178
asg255
(lp1129
g725
ag206
ag26
asg256
(lp1130
g233
ag846
ag585
ag384
ag60
ag846
ag69
ag86
asg811
(lp1131
g495
ag326
asg257
(lp1132
g637
ag556
ag629
asg258
(lp1133
g788
ag14
asg259
(lp1134
g810
ag458
ag810
ag254
asg260
(lp1135
g721
ag118
ag618
ag27
asg261
(lp1136
g705
ag61
ag117
asg262
(lp1137
g68
ag851
asg499
(lp1138
g594
ag382
ag283
asg263
(lp1139
g165
asg264
(lp1140
g461
ag435
asg265
(lp1141
g835
ag717
ag634
asg266
(lp1142
g219
ag488
ag337
ag337
asg268
(lp1143
g787
asg269
(lp1144
g831
ag802
ag624
asg548
(lp1145
g8
ag215
ag840
ag463
ag875
asg271
(lp1146
g665
ag496
ag209
ag595
asg272
(lp1147
g370
asg273
(lp1148
g36
ag319
asg826
(lp1149
g120
ag312
ag821
asg326
(lp1150
g495
ag811
asg276
(lp1151
g473
ag600
asg277
(lp1152
g297
ag386
asg278
(lp1153
g682
ag866
ag144
ag602
ag769
ag673
ag637
ag451
ag486
ag730
ag575
ag712
ag756
ag405
ag475
asg279
(lp1154
g223
ag598
ag774
asg280
(lp1155
g77
asg281
(lp1156
g609
ag598
ag609
ag92
ag479
asg282
(lp1157
g863
ag77
ag77
ag495
ag871
ag807
asg283
(lp1158
g699
ag114
ag382
ag499
asg284
(lp1159
g709
ag643
asg285
(lp1160
g568
ag391
ag668
ag232
ag134
asg286
(lp1161
g616
ag218
asg287
(lp1162
g15
ag597
asg288
(lp1163
g143
ag58
ag584
ag169
asg289
(lp1164
g341
ag754
ag481
ag613
ag695
ag440
asg290
(lp1165
g810
asg55
(lp1166
g636
ag365
ag449
ag722
ag783
ag13
ag691
asg292
(lp1167
g497
ag580
asg477
(lp1168
g434
ag467
ag408
ag542
asg296
(lp1169
g434
ag603
ag676
ag832
ag824
ag224
ag570
ag467
ag683
ag519
ag706
ag836
asg220
(lp1170
g831
ag252
ag825
ag98
ag464
asg298
(lp1171
g473
ag248
asg111
(lp1172
g805
ag472
ag691
ag636
ag349
ag87
ag59
ag640
ag4
ag465
ag518
ag294
ag639
ag639
ag633
asg300
(lp1173
g839
ag201
ag174
asg301
(lp1174
g150
asg302
(lp1175
g879
ag780
ag213
ag143
asg129
(lp1176
g812
ag440
ag695
asg304
(lp1177
g148
ag73
asg305
(lp1178
g397
ag866
ag107
ag652
asg332
(lp1179
g701
ag389
ag113
ag813
ag165
ag122
ag340
ag444
ag873
asg682
(lp1180
g769
ag278
ag866
ag397
asg204
(lp1181
g721
asg308
(lp1182
g673
ag772
asg309
(lp1183
g847
asg226
(lp1184
g398
ag407
asg310
(lp1185
g253
ag81
ag424
ag424
ag766
asg195
(lp1186
g227
asg313
(lp1187
g668
ag391
ag401
ag367
asg314
(lp1188
g60
ag384
asg213
(lp1189
g386
ag58
ag844
ag302
ag143
asg178
(lp1190
g849
ag698
ag254
ag749
ag814
asg317
(lp1191
g560
ag10
ag688
ag753
asg318
(lp1192
g737
asg319
(lp1193
g36
ag356
ag273
ag828
asg320
(lp1194
g85
ag45
asg321
(lp1195
g670
asg275
(lp1196
g96
ag727
asg635
(lp1197
g351
asg324
(lp1198
g426
ag436
ag101
ag38
asg325
(lp1199
g714
ag835
ag471
asg274
(lp1200
g684
ag89
ag556
ag809
ag157
ag157
asg327
(lp1201
g73
ag422
asg328
(lp1202
g545
ag383
asg800
(lp1203
g356
ag755
ag378
ag7
ag515
asg329
(lp1204
g428
ag664
ag667
asg330
(lp1205
g569
asg517
(lp1206
g72
ag812
ag605
ag210
asg483
(lp1207
g132
ag424
ag81
ag847
ag181
ag628
ag380
ag67
ag71
asg306
(lp1208
g434
ag577
ag145
ag433
ag870
ag848
asg312
(lp1209
g773
ag120
ag826
asg334
(lp1210
g150
ag669
ag150
ag466
ag439
asg469
(lp1211
g209
asg336
(lp1212
g610
ag610
ag198
ag456
asg337
(lp1213
g266
ag266
asg338
(lp1214
g118
ag692
ag822
ag396
asg339
(lp1215
g50
asg340
(lp1216
g332
asg341
(lp1217
g671
ag150
ag793
ag502
ag481
ag289
ag613
ag591
ag564
ag696
ag801
asg342
(lp1218
g556
ag239
ag705
ag872
asg787
(lp1219
g833
ag268
asg760
(lp1220
g137
ag60
asg344
(lp1221
g370
ag658
ag20
ag573
ag581
ag51
asg131
(lp1222
g835
ag156
asg751
(lp1223
g718
ag445
asg347
(lp1224
g618
ag235
asg348
(lp1225
g590
ag353
ag520
ag372
ag653
asg349
(lp1226
g111
ag636
ag87
ag607
ag400
ag827
ag775
ag770
asg350
(lp1227
g360
ag206
ag521
asg351
(lp1228
g635
ag793
ag571
asg486
(lp1229
g405
ag278
ag61
ag451
ag705
ag526
ag526
ag247
asg352
(lp1230
g637
ag846
ag530
ag679
ag267
ag566
asg353
(lp1231
g73
ag422
ag176
ag590
ag372
ag348
asg354
(lp1232
g794
ag778
ag551
ag429
asg355
(lp1233
g610
ag436
ag426
asg356
(lp1234
g795
ag250
ag800
ag755
ag250
ag36
ag42
ag406
ag319
ag828
asg487
(lp1235
g72
ag850
asg358
(lp1236
g711
ag194
asg359
(lp1237
g596
ag489
asg360
(lp1238
g206
ag350
ag524
ag816
ag163
asg361
(lp1239
g596
ag541
ag596
asg362
(lp1240
g38
ag101
ag718
ag834
ag11
asg363
(lp1241
g578
asg364
(lp1242
g166
ag120
ag702
ag578
ag614
ag818
asg365
(lp1243
g55
ag449
ag16
asg366
(lp1244
g492
ag402
ag646
asg367
(lp1245
g668
ag313
asg368
(lp1246
g537
ag616
ag218
asg795
(lp1247
g356
ag755
ag250
ag823
ag184
asg370
(lp1248
g272
ag344
ag658
asg371
(lp1249
g158
ag243
ag11
ag438
ag718
ag445
asg372
(lp1250
g73
ag353
ag348
ag645
ag520
asg373
(lp1251
g699
ag150
ag382
ag867
asg374
(lp1252
g113
ag701
asg647
(lp1253
g164
ag693
ag46
ag482
asg375
(lp1254
g253
ag514
ag227
ag623
ag316
asg597
(lp1255
g287
ag619
ag411
ag29
ag21
ag762
asg345
(lp1256
g742
ag771
ag844
ag23
ag723
asg377
(lp1257
g648
ag18
ag193
asg378
(lp1258
g800
ag7
asg379
(lp1259
g122
ag315
ag701
ag398
ag869
ag837
asg380
(lp1260
g81
ag483
ag71
ag694
asg381
(lp1261
g142
ag431
asg382
(lp1262
g699
ag594
ag499
ag283
ag867
ag373
asg383
(lp1263
g328
ag573
asg384
(lp1264
g256
ag60
ag314
ag116
ag585
asg385
(lp1265
g249
asg386
(lp1266
g844
ag213
ag455
ag186
ag58
ag297
ag277
ag219
ag432
asg494
(lp1267
g73
ag148
asg388
(lp1268
g543
ag430
ag621
asg389
(lp1269
g813
ag332
ag638
ag113
asg390
(lp1270
g62
ag452
ag722
ag16
ag449
asg391
(lp1271
g650
ag602
ag343
ag568
ag651
ag285
ag668
ag313
ag401
asg392
(lp1272
g598
ag223
asg393
(lp1273
g118
asg394
(lp1274
g804
ag112
ag323
asg395
(lp1275
g757
asg396
(lp1276
g118
ag338
asg397
(lp1277
g305
ag866
ag682
asg398
(lp1278
g151
ag222
ag837
ag379
ag243
ag853
ag512
ag243
ag407
ag226
asg399
(lp1279
g197
ag128
ag246
asg400
(lp1280
g607
ag349
asg401
(lp1281
g391
ag313
asg402
(lp1282
g478
ag492
ag366
ag724
asg650
(lp1283
g391
ag602
ag31
ag791
asg404
(lp1284
g493
ag564
ag591
ag661
ag877
asg405
(lp1285
g247
ag486
ag18
ag794
ag278
ag149
ag785
ag785
ag475
asg406
(lp1286
g356
ag42
ag192
ag74
asg407
(lp1287
g398
ag226
ag243
asg408
(lp1288
g477
asg409
(lp1289
g636
ag41
ag369
asg410
(lp1290
g447
ag25
ag569
asg411
(lp1291
g597
ag29
ag619
asg412
(lp1292
g538
asg413
(lp1293
g540
asg414
(lp1294
g35
ag766
ag424
asg415
(lp1295
g590
ag176
ag200
ag854
ag697
ag546
ag242
asg416
(lp1296
g68
asg418
(lp1297
g664
ag664
asg419
(lp1298
g489
ag108
ag764
asg420
(lp1299
g755
ag423
ag593
asg421
(lp1300
g423
ag641
asg422
(lp1301
g353
ag73
ag327
asg423
(lp1302
g58
ag641
ag421
ag755
ag420
ag593
asg424
(lp1303
g483
ag310
ag587
ag310
ag766
ag414
asg425
(lp1304
g484
ag37
ag797
ag736
asg426
(lp1305
g324
ag436
ag355
asg427
(lp1306
g109
ag229
asg428
(lp1307
g329
ag713
ag664
asg429
(lp1308
g354
ag551
asg14
(lp1309
g177
ag33
ag788
ag258
asg17
(lp1310
g236
ag228
ag163
asg433
(lp1311
g577
ag306
ag133
ag145
asg23
(lp1312
g879
ag345
asg435
(lp1313
g95
ag62
ag461
ag264
asg436
(lp1314
g610
ag324
ag101
ag426
ag355
ag720
ag101
ag480
asg438
(lp1315
g158
ag371
asg439
(lp1316
g466
ag334
asg440
(lp1317
g812
ag613
ag289
ag129
ag695
asg441
(lp1318
g162
ag505
asg442
(lp1319
g801
ag150
ag789
asg443
(lp1320
g67
asg444
(lp1321
g332
ag873
asg99
(lp1322
g856
ag568
asg215
(lp1323
g8
ag671
ag135
ag548
ag840
asg447
(lp1324
g410
ag25
ag737
ag137
ag137
ag28
asg448
(lp1325
g85
ag182
ag680
ag104
asg449
(lp1326
g55
ag722
ag390
ag16
ag365
asg450
(lp1327
g799
ag30
asg451
(lp1328
g637
ag278
ag486
ag190
ag61
asg452
(lp1329
g636
ag85
ag62
ag390
ag722
asg453
(lp1330
g666
ag484
ag643
asg657
(lp1331
g595
ag209
asg455
(lp1332
g844
ag386
ag147
ag554
asg63
(lp1333
g671
ag781
ag855
ag740
ag632
ag737
ag150
ag196
asg457
(lp1334
g323
ag431
asg458
(lp1335
g810
ag259
asg459
(lp1336
g193
ag729
ag768
asg460
(lp1337
g839
ag798
asg659
(lp1338
g837
ag853
ag127
asg202
(lp1339
g124
asg463
(lp1340
g8
ag548
ag875
asg464
(lp1341
g831
ag220
ag98
asg465
(lp1342
g111
asg466
(lp1343
g150
ag196
ag716
ag334
ag439
asg295
(lp1344
g476
ag32
ag639
ag860
ag880
asg468
(lp1345
g462
ag238
ag565
ag784
ag776
ag291
ag291
ag604
asg311
(lp1346
g785
ag66
ag785
ag175
asg470
(lp1347
g822
ag245
asg471
(lp1348
g519
ag706
ag519
ag307
ag76
ag735
ag835
ag325
asg472
(lp1349
g111
ag805
ag691
ag249
ag13
asg473
(lp1350
g523
ag248
ag298
ag830
ag276
ag600
asg474
(lp1351
g610
ag303
ag173
ag527
asg475
(lp1352
g730
ag278
ag405
ag785
ag175
asg476
(lp1353
g295
ag32
asg605
(lp1354
g812
ag160
ag170
ag808
ag210
ag517
asg293
(lp1355
g103
ag54
ag820
asg661
(lp1356
g404
ag877
asg479
(lp1357
g92
ag281
asg480
(lp1358
g101
ag436
asg481
(lp1359
g341
ag502
ag289
ag754
asg482
(lp1360
g555
ag633
ag647
ag4
ag164
ag779
asg331
(lp1361
g225
asg484
(lp1362
g862
ag241
ag68
ag643
ag453
ag625
ag417
ag425
ag37
asg485
(lp1363
g556
ag540
ag721
ag622
ag240
asg706
(lp1364
g296
ag836
ag519
ag471
asg267
(lp1365
g352
ag566
ag490
asg357
(lp1366
g614
ag578
ag43
asg488
(lp1367
g219
ag266
asg489
(lp1368
g94
ag419
ag596
ag359
asg490
(lp1369
g566
ag267
asg491
(lp1370
g47
ag726
ag693
asg492
(lp1371
g366
ag402
asg346
(lp1372
g159
ag715
ag110
asg387
(lp1373
g756
ag199
asg495
(lp1374
g282
ag807
ag77
ag57
ag811
ag326
ag56
asg74
(lp1375
g406
ag192
asg497
(lp1376
g683
ag188
ag580
ag292
asg498
(lp1377
g106
ag734
asg212
(lp1378
g768
ag704
asg500
(lp1379
g228
ag236
ag533
ag567
asg501
(lp1380
g540
ag750
asg502
(lp1381
g341
ag481
ag571
ag793
asg503
(lp1382
g227
ag22
asg504
(lp1383
g781
ag855
asg505
(lp1384
g217
ag677
ag162
ag441
asg506
(lp1385
g759
ag434
ag577
ag579
asg507
(lp1386
g841
ag5
asg508
(lp1387
g803
ag219
ag186
ag121
asg509
(lp1388
g651
asg510
(lp1389
g58
ag297
asg511
(lp1390
g141
ag717
ag710
ag878
asg512
(lp1391
g243
ag398
ag127
ag853
asg513
(lp1392
g794
ag149
asg514
(lp1393
g609
ag831
ag253
ag375
ag227
asg515
(lp1394
g755
ag800
ag7
asg516
(lp1395
g698
ag461
asg493
(lp1396
g404
ag564
asg518
(lp1397
g111
ag294
asg519
(lp1398
g139
ag296
ag706
ag471
ag471
ag79
ag307
asg520
(lp1399
g348
ag372
ag645
asg757
(lp1400
g395
ag644
ag786
ag689
asg521
(lp1401
g206
ag350
asg522
(lp1402
g654
ag738
asg523
(lp1403
g473
ag112
ag538
asg524
(lp1404
g692
ag671
ag96
ag725
ag360
ag816
ag533
asg525
(lp1405
g233
ag241
ag806
asg526
(lp1406
g486
ag705
ag872
ag211
ag486
ag247
ag239
ag660
asg819
(lp1407
g35
ag678
ag376
ag743
asg322
(lp1408
g35
ag115
asg528
(lp1409
g431
ag610
ag864
asg529
(lp1410
g693
ag726
ag778
ag582
ag46
ag704
ag794
ag768
ag729
asg530
(lp1411
g846
ag352
ag19
ag19
ag679
asg531
(lp1412
g836
asg532
(lp1413
g107
ag144
ag791
ag31
asg533
(lp1414
g692
ag524
ag816
ag228
ag500
ag567
ag686
ag245
asg534
(lp1415
g845
ag782
ag60
asg535
(lp1416
g188
ag580
asg536
(lp1417
g636
ag251
ag685
ag636
ag41
ag674
ag674
asg537
(lp1418
g616
ag368
ag132
ag132
asg538
(lp1419
g523
ag112
ag804
ag412
asg539
(lp1420
g232
ag134
asg540
(lp1421
g454
ag501
ag750
ag335
ag413
ag485
ag240
ag556
ag191
ag171
ag171
ag18
asg541
(lp1422
g614
ag596
ag361
asg542
(lp1423
g167
ag477
asg639
(lp1424
g111
ag294
ag78
ag183
ag32
ag111
ag633
ag295
ag880
asg544
(lp1425
g251
ag562
asg545
(lp1426
g328
ag573
asg546
(lp1427
g415
ag242
ag697
asg547
(lp1428
g798
ag838
asg196
(lp1429
g63
ag150
ag466
ag716
ag632
ag561
asg549
(lp1430
g128
asg550
(lp1431
g430
ag235
asg655
(lp1432
g153
ag214
asg551
(lp1433
g726
ag778
ag354
ag429
asg552
(lp1434
g97
asg553
(lp1435
g820
asg543
(lp1436
g388
asg555
(lp1437
g482
ag633
ag39
asg823
(lp1438
g755
ag795
asg557
(lp1439
g841
ag748
ag622
asg558
(lp1440
g842
ag759
ag177
ag761
asg559
(lp1441
g833
asg560
(lp1442
g317
ag10
asg561
(lp1443
g632
ag196
asg562
(lp1444
g251
ag677
ag217
ag544
asg563
(lp1445
g42
ag192
ag197
ag30
ag799
ag642
asg564
(lp1446
g341
ag588
ag696
ag404
ag591
ag493
asg565
(lp1447
g776
ag468
ag784
ag234
asg566
(lp1448
g637
ag185
ag629
ag352
ag267
ag490
asg270
(lp1449
g644
ag630
asg568
(lp1450
g232
ag285
ag391
ag99
ag343
asg569
(lp1451
g330
ag632
ag25
ag410
asg570
(lp1452
g296
ag836
ag713
ag224
asg571
(lp1453
g502
ag793
ag351
asg572
(lp1454
g162
ag182
ag859
ag703
asg573
(lp1455
g344
ag51
ag20
ag383
ag545
asg574
(lp1456
g733
ag662
asg575
(lp1457
g278
ag730
ag712
ag747
asg829
(lp1458
g755
ag584
asg577
(lp1459
g434
ag433
ag306
ag579
ag506
asg11
(lp1460
g718
ag371
ag362
ag592
ag834
asg16
(lp1461
g390
ag449
ag365
asg580
(lp1462
g188
ag535
ag188
ag497
ag292
asg22
(lp1463
g227
ag609
ag503
ag774
asg34
(lp1464
g168
asg584
(lp1465
g755
ag829
ag58
ag169
ag288
asg585
(lp1466
g233
ag256
ag384
ag681
ag116
asg586
(lp1467
g724
ag738
asg587
(lp1468
g132
ag707
ag424
asg376
(lp1469
g496
ag678
ag123
ag743
ag819
asg588
(lp1470
g564
ag696
ag64
ag180
asg589
(lp1471
g251
asg590
(lp1472
g715
ag810
ag415
ag854
ag348
ag353
ag653
ag763
ag110
asg101
(lp1473
g362
ag718
ag436
ag38
ag324
ag436
ag480
asg592
(lp1474
g731
ag11
asg593
(lp1475
g423
ag420
asg594
(lp1476
g382
ag499
ag125
asg137
(lp1477
g437
ag447
ag447
ag28
ag760
ag60
ag846
ag140
asg596
(lp1478
g94
ag205
ag359
ag489
ag614
ag541
ag361
ag361
asg48
(lp1479
g737
ag740
ag3
asg599
(lp1480
g77
asg159
(lp1481
g849
ag810
ag346
ag715
asg601
(lp1482
g150
ag789
asg602
(lp1483
g278
ag391
ag650
ag791
ag144
asg603
(lp1484
g296
ag815
ag676
ag434
ag33
ag788
asg604
(lp1485
g468
asg417
(lp1486
g484
ag625
ag620
asg606
(lp1487
g85
ag104
asg607
(lp1488
g400
ag349
ag87
asg197
(lp1489
g128
ag399
ag642
ag799
ag563
asg609
(lp1490
g514
ag831
ag22
ag774
ag598
ag281
ag281
ag92
ag624
ag83
asg610
(lp1491
g720
ag303
ag355
ag436
ag336
ag303
ag474
ag336
ag198
ag431
ag431
ag528
ag864
ag868
asg611
(lp1492
g728
ag860
asg207
(lp1493
g241
ag93
asg613
(lp1494
g671
ag341
ag812
ag440
ag289
asg598
(lp1495
g223
ag392
ag774
ag279
ag609
ag281
asg615
(lp1496
g556
ag190
ag61
ag745
ag117
asg430
(lp1497
g671
ag692
ag235
ag550
ag621
ag388
asg617
(lp1498
g6
ag742
asg618
(lp1499
g692
ag118
ag260
ag235
ag347
asg248
(lp1500
g473
ag298
asg620
(lp1501
g625
ag417
asg621
(lp1502
g671
ag781
ag626
ag430
ag388
asg622
(lp1503
g721
ag748
ag557
ag721
ag485
asg623
(lp1504
g102
ag152
ag253
ag375
ag316
asg624
(lp1505
g831
ag609
ag83
ag269
asg626
(lp1506
g781
ag621
asg627
(lp1507
g253
ag694
asg628
(lp1508
g181
ag483
asg629
(lp1509
g637
ag566
ag257
ag185
asg630
(lp1510
g85
ag80
ag45
ag644
ag270
asg631
(lp1511
g120
asg632
(lp1512
g63
ag196
ag561
ag737
ag569
ag25
asg633
(lp1513
g482
ag555
ag111
ag728
ag880
ag639
asg634
(lp1514
g265
asg323
(lp1515
g457
ag431
ag112
ag112
ag394
asg164
(lp1516
g647
ag482
ag779
asg637
(lp1517
g352
ag566
ag629
ag257
ag556
ag190
ag451
ag278
ag846
ag673
asg638
(lp1518
g813
ag389
asg640
(lp1519
g111
ag59
asg641
(lp1520
g58
ag423
ag421
asg642
(lp1521
g197
ag563
asg78
(lp1522
g865
ag639
asg644
(lp1523
g85
ag270
ag630
ag757
ag786
asg645
(lp1524
g73
ag372
ag520
asg646
(lp1525
g130
ag366
asg333
(lp1526
g608
asg648
(lp1527
g377
asg649
(lp1528
g135
ag174
asg403
(lp1529
g721
asg651
(lp1530
g509
ag391
asg652
(lp1531
g107
ag305
asg653
(lp1532
g348
ag590
asg654
(lp1533
g522
ag738
ag203
ag70
asg446
(lp1534
g187
ag35
asg656
(lp1535
g147
asg454
(lp1536
g240
ag540
asg658
(lp1537
g344
ag370
asg461
(lp1538
g85
ag516
ag62
ag264
ag435
asg660
(lp1539
g247
ag526
ag239
asg478
(lp1540
g402
asg662
(lp1541
g712
ag733
ag574
asg663
(lp1542
g26
asg664
(lp1543
g428
ag675
ag713
ag418
ag329
ag418
ag667
asg665
(lp1544
g595
ag271
ag496
ag40
ag221
ag44
asg864
(lp1545
g610
ag868
ag528
asg666
(lp1546
g453
asg667
(lp1547
g329
ag664
asg668
(lp1548
g367
ag313
ag391
ag134
ag285
asg582
(lp1549
g529
ag46
asg670
(lp1550
g321
ag753
asg671
(lp1551
g812
ag613
ag341
ag150
ag63
ag781
ag621
ag430
ag96
ag524
ag215
ag135
ag135
ag201
ag839
asg672
(lp1552
g784
asg673
(lp1553
g278
ag637
ag86
ag846
ag308
ag772
ag100
ag769
asg674
(lp1554
g536
ag536
asg675
(lp1555
g664
ag713
ag836
asg676
(lp1556
g603
ag815
ag296
ag832
asg677
(lp1557
g636
ag217
ag562
ag182
ag162
ag505
asg678
(lp1558
g35
ag253
ag496
ag819
ag376
asg679
(lp1559
g352
ag530
ag19
asg680
(lp1560
g182
ag448
asg681
(lp1561
g585
ag116
asg616
(lp1562
g537
ag286
ag368
asg683
(lp1563
g296
ag139
ag467
ag188
ag497
asg852
(lp1564
g177
ag761
asg684
(lp1565
g274
asg685
(lp1566
g536
ag251
asg686
(lp1567
g533
ag567
ag245
ag12
asg687
(lp1568
g231
asg853
(lp1569
g837
ag398
ag512
ag659
ag127
asg689
(lp1570
g767
ag786
ag757
asg690
(lp1571
g124
ag229
ag229
ag109
asg691
(lp1572
g111
ag636
ag55
ag13
ag472
asg692
(lp1573
g524
ag533
ag430
ag235
ag618
ag118
ag118
ag245
ag822
ag338
asg693
(lp1574
g647
ag46
ag529
ag779
ag726
ag491
asg695
(lp1575
g289
ag440
ag129
asg694
(lp1576
g81
ag380
ag627
asg136
(lp1577
g27
asg697
(lp1578
g415
ag546
asg698
(lp1579
g516
ag85
ag849
ag178
ag254
asg699
(lp1580
g373
ag382
ag283
ag150
ag711
ag114
asg700
(lp1581
g714
asg701
(lp1582
g122
ag869
ag379
ag113
ag332
ag374
ag65
ag52
asg696
(lp1583
g341
ag564
ag801
ag588
ag180
asg703
(lp1584
g162
ag572
asg705
(lp1585
g556
ag745
ag843
ag261
ag486
ag342
ag872
ag526
asg554
(lp1586
g455
ag147
asg707
(lp1587
g587
asg708
(lp1588
g720
ag303
asg709
(lp1589
g97
ag625
ag284
ag643
ag714
asg710
(lp1590
g735
ag835
ag717
ag878
ag511
asg711
(lp1591
g194
ag358
ag150
ag699
asg643
(lp1592
g484
ag709
ag284
ag453
asg713
(lp1593
g570
ag428
ag664
ag836
ag675
asg714
(lp1594
g700
ag325
ag709
asg857
(lp1595
g155
ag64
asg716
(lp1596
g196
ag466
asg717
(lp1597
g835
ag265
ag511
ag710
asg718
(lp1598
g101
ag11
ag362
ag371
ag445
ag751
ag861
ag583
asg719
(lp1599
g216
ag122
ag739
asg720
(lp1600
g610
ag436
ag303
ag708
asg721
(lp1601
g260
ag118
ag556
ag403
ag204
ag556
ag748
ag622
ag622
ag485
asg722
(lp1602
g636
ag55
ag452
ag390
ag449
asg723
(lp1603
g345
asg724
(lp1604
g586
ag402
ag75
asg725
(lp1605
g524
ag255
ag206
ag96
ag231
ag91
asg173
(lp1606
g474
asg727
(lp1607
g96
ag231
ag179
ag275
asg729
(lp1608
g193
ag794
ag529
ag459
ag768
asg731
(lp1609
g592
asg732
(lp1610
g456
asg859
(lp1611
g182
ag572
asg734
(lp1612
g60
ag845
ag845
ag106
ag60
ag498
asg735
(lp1613
g878
ag710
ag471
ag835
ag76
asg736
(lp1614
g797
ag425
asg737
(lp1615
g48
ag3
ag318
ag63
ag447
ag632
ag25
asg738
(lp1616
g654
ag203
ag522
ag586
asg739
(lp1617
g873
ag122
ag719
ag244
asg740
(lp1618
g63
ag48
ag855
asg741
(lp1619
g166
asg742
(lp1620
g345
ag771
ag617
asg743
(lp1621
g376
ag819
ag123
asg61
(lp1622
g486
ag451
ag190
ag615
ag117
ag261
asg702
(lp1623
g364
ag578
asg567
(lp1624
g533
ag500
ag686
asg746
(lp1625
g179
asg747
(lp1626
g712
ag575
asg748
(lp1627
g118
ag841
ag721
ag622
ag557
asg749
(lp1628
g810
ag849
ag178
ag814
asg750
(lp1629
g540
ag335
ag501
asg625
(lp1630
g709
ag484
ag620
ag417
ag752
asg753
(lp1631
g688
ag317
ag670
asg754
(lp1632
g289
ag481
asg755
(lp1633
g829
ag584
ag356
ag515
ag800
ag795
ag823
ag423
ag420
asg756
(lp1634
g278
ag199
ag387
ag712
ag733
asg745
(lp1635
g556
ag705
ag615
ag117
ag843
asg758
(lp1636
g307
ag76
asg759
(lp1637
g506
ag434
ag208
ag842
ag558
ag177
asg175
(lp1638
g475
ag785
ag311
asg761
(lp1639
g177
ag558
ag177
ag852
asg186
(lp1640
g386
ag121
ag219
ag121
ag508
asg763
(lp1641
g82
ag590
asg764
(lp1642
g108
ag419
asg200
(lp1643
g415
ag176
asg766
(lp1644
g253
ag35
ag310
ag414
ag424
asg767
(lp1645
g849
ag689
ag786
asg768
(lp1646
g212
ag704
ag529
ag729
ag459
asg769
(lp1647
g682
ag278
ag673
ag100
asg770
(lp1648
g349
ag775
asg771
(lp1649
g742
ag345
asg772
(lp1650
g100
ag673
ag308
asg773
(lp1651
g874
ag312
ag120
ag120
asg774
(lp1652
g609
ag598
ag22
ag279
asg775
(lp1653
g349
ag770
ag827
asg776
(lp1654
g565
ag468
ag291
asg777
(lp1655
g65
asg778
(lp1656
g529
ag726
ag794
ag551
ag354
asg779
(lp1657
g693
ag482
ag164
asg780
(lp1658
g302
asg781
(lp1659
g671
ag63
ag855
ag504
ag621
ag626
asg782
(lp1660
g534
asg783
(lp1661
g55
ag13
ag249
asg784
(lp1662
g672
ag462
ag468
ag234
ag565
asg785
(lp1663
g405
ag149
ag66
ag311
ag405
ag475
ag311
ag175
asg786
(lp1664
g85
ag767
ag644
ag689
ag757
asg343
(lp1665
g391
ag568
asg788
(lp1666
g603
ag33
ag14
ag258
asg789
(lp1667
g150
ag601
ag442
asg790
(lp1668
g835
ag797
asg791
(lp1669
g602
ag144
ag650
ag31
ag532
asg728
(lp1670
g633
ag880
ag611
ag860
asg870
(lp1671
g145
ag306
ag848
asg793
(lp1672
g877
ag591
ag341
ag502
ag351
ag571
asg794
(lp1673
g405
ag193
ag18
ag729
ag529
ag513
ag149
ag778
ag354
asg369
(lp1674
g636
ag409
asg796
(lp1675
g467
ag153
asg797
(lp1676
g835
ag790
ag37
ag736
ag425
asg798
(lp1677
g839
ag96
ag547
ag838
ag460
asg799
(lp1678
g197
ag563
ag450
ag30
asg730
(lp1679
g475
ag278
ag575
asg801
(lp1680
g150
ag341
ag442
ag155
ag180
ag696
asg802
(lp1681
g831
ag269
ag203
ag70
asg803
(lp1682
g508
asg855
(lp1683
g63
ag781
ag740
ag504
asg805
(lp1684
g111
ag472
asg712
(lp1685
g278
ag575
ag747
ag756
ag662
ag733
asg806
(lp1686
g241
ag525
ag93
asg807
(lp1687
g56
ag495
ag282
ag871
asg726
(lp1688
g529
ag778
ag551
ag693
ag491
asg808
(lp1689
g812
ag605
ag170
asg809
(lp1690
g274
ag157
asg810
(lp1691
g590
ag854
ag53
ag849
ag715
ag159
ag849
ag749
ag290
ag458
ag259
ag259
ag254
asg335
(lp1692
g540
ag750
asg812
(lp1693
g671
ag72
ag88
ag8
ag517
ag605
ag808
ag129
ag440
ag613
asg813
(lp1694
g638
ag389
ag332
ag165
asg814
(lp1695
g254
ag178
ag749
asg815
(lp1696
g603
ag676
asg816
(lp1697
g524
ag533
ag360
ag163
ag228
asg817
(lp1698
g120
ag821
ag818
asg818
(lp1699
g821
ag614
ag364
ag817
asg527
(lp1700
g474
asg820
(lp1701
g553
ag293
asg821
(lp1702
g120
ag817
ag818
ag614
ag826
asg822
(lp1703
g692
ag338
ag245
ag470
asg556
(lp1704
g637
ag190
ag615
ag745
ag705
ag342
ag274
ag89
ag126
ag126
ag257
ag721
ag721
ag485
ag540
ag191
asg824
(lp1705
g296
ag224
ag832
asg825
(lp1706
g496
ag252
ag220
ag98
asg133
(lp1707
g433
ag145
asg827
(lp1708
g636
ag349
ag775
asg828
(lp1709
g356
ag319
asg576
(lp1710
g238
ag462
asg830
(lp1711
g473
asg831
(lp1712
g253
ag252
ag220
ag464
ag609
ag624
ag269
ag802
ag203
ag253
ag514
asg832
(lp1713
g296
ag824
ag676
asg636
(lp1714
g452
ag722
ag55
ag691
ag182
ag677
ag251
ag536
ag111
ag536
ag41
ag409
ag369
ag349
ag827
asg833
(lp1715
g9
ag559
ag858
ag787
asg834
(lp1716
g362
ag11
asg835
(lp1717
g131
ag156
ag851
ag790
ag797
ag37
ag735
ag471
ag325
ag710
ag717
ag265
asg873
(lp1718
g122
ag739
ag244
ag332
ag444
asg837
(lp1719
g659
ag853
ag398
ag379
ag84
ag869
asg838
(lp1720
g96
ag798
ag547
asg839
(lp1721
g460
ag798
ag671
ag300
ag201
asg840
(lp1722
g135
ag215
ag875
ag548
asg841
(lp1723
g118
ag748
ag557
ag5
ag507
asg842
(lp1724
g759
ag558
asg843
(lp1725
g705
ag745
ag117
asg844
(lp1726
g386
ag455
ag345
ag879
ag213
asg845
(lp1727
g534
ag734
ag734
ag106
ag608
asg846
(lp1728
g530
ag352
ag60
ag137
ag140
ag60
ag256
ag637
ag673
ag256
ag86
asg847
(lp1729
g309
ag132
ag483
ag181
asg848
(lp1730
g434
ag306
ag870
asg849
(lp1731
g767
ag85
ag159
ag810
ag810
ag749
ag178
ag698
asg850
(lp1732
g299
ag88
ag72
ag487
asg851
(lp1733
g835
ag68
ag262
ag156
asg704
(lp1734
g768
ag529
ag212
asg688
(lp1735
g317
ag753
asg854
(lp1736
g810
ag590
ag415
ag242
ag242
ag53
asg856
(lp1737
g99
asg715
(lp1738
g590
ag810
ag159
ag110
ag346
asg858
(lp1739
g9
ag833
asg733
(lp1740
g756
ag712
ag662
ag574
asg860
(lp1741
g295
ag880
ag728
ag611
asg861
(lp1742
g583
ag718
asg862
(lp1743
g484
ag241
ag612
asg863
(lp1744
g282
asg865
(lp1745
g78
asg866
(lp1746
g278
ag144
ag305
ag107
ag397
ag682
asg867
(lp1747
g382
ag373
asg869
(lp1748
g701
ag379
ag837
ag52
ag84
asg868
(lp1749
g610
ag864
asg752
(lp1750
g237
ag625
asg804
(lp1751
g394
ag112
ag538
asg871
(lp1752
g282
ag807
asg872
(lp1753
g705
ag526
ag342
ag211
asg836
(lp1754
g296
ag706
ag531
ag570
ag713
ag675
asg874
(lp1755
g773
ag21
ag230
asg875
(lp1756
g840
ag548
ag463
asg876
(lp1757
g124
asg877
(lp1758
g793
ag591
ag404
ag661
asg878
(lp1759
g735
ag710
ag511
asg879
(lp1760
g23
ag302
ag844
asg880
(lp1761
g633
ag639
ag295
ag860
ag728
asg881
(lp1762
g434
ass.